target datalayout = "e-m:e-p270:32:32-p271:32:32-p272:64:64-i64:64-i128:128-f80:128-n8:16:32:64-S128"
target triple = "x86_64-pc-linux-gnu"

@ett_aim_nickinfo_caps = internal global i32 0, align 4
@.str.659 = private unnamed_addr constant [25 x i8] c"Client Capabilities List\00", align 1

; Function Attrs: null_pointer_is_valid sspstrong uwtable
define internal i32 @dissect_aim_tlv_value_client_capabilities(ptr noundef %0, i16 noundef zeroext %1, ptr noundef %2, ptr noundef %3) #0 {
  %5 = alloca ptr, align 8
  %6 = alloca i16, align 2
  %7 = alloca ptr, align 8
  %8 = alloca ptr, align 8
  %9 = alloca i32, align 4
  %10 = alloca ptr, align 8
  store ptr %0, ptr %5, align 8
  store i16 %1, ptr %6, align 2
  store ptr %2, ptr %7, align 8
  store ptr %3, ptr %8, align 8
  call void @llvm.lifetime.start.p0(i64 4, ptr %9) #13
  store i32 0, ptr %9, align 4
  call void @llvm.lifetime.start.p0(i64 8, ptr %10) #13
  %11 = load ptr, ptr %5, align 8
  call void (ptr, ptr, ...) @proto_item_set_text(ptr noundef %11, ptr noundef @.str.659)
  %12 = load ptr, ptr %5, align 8
  %13 = load i32, ptr @ett_aim_nickinfo_caps, align 4
  %14 = call ptr @proto_item_add_subtree(ptr noundef %12, i32 noundef %13)
  store ptr %14, ptr %10, align 8
  br label %15

15:                                               ; preds = %20, %4
  %16 = load ptr, ptr %7, align 8
  %17 = load i32, ptr %9, align 4
  %18 = call i32 @tvb_reported_length_remaining(ptr noundef %16, i32 noundef %17)
  %19 = icmp sgt i32 %18, 0
  br i1 %19, label %20, label %25

20:                                               ; preds = %15
  %21 = load ptr, ptr %10, align 8
  %22 = load ptr, ptr %7, align 8
  %23 = load i32, ptr %9, align 4
  %24 = call i32 @dissect_aim_capability(ptr noundef %21, ptr noundef %22, i32 noundef %23)
  store i32 %24, ptr %9, align 4
  br label %15, !llvm.loop !18

25:                                               ; preds = %15
  %26 = load ptr, ptr %7, align 8
  %27 = call i32 @tvb_reported_length(ptr noundef %26)
  call void @llvm.lifetime.end.p0(i64 8, ptr %10) #13
  call void @llvm.lifetime.end.p0(i64 4, ptr %9) #13
  ret i32 %27
}