; Function Attrs: null_pointer_is_valid sspstrong uwtable
define internal i32 @dissect_aim_tlv_value_client_capabilities(ptr noundef %0, i16 zeroext %1, ptr noundef %2, ptr readnone captures(none) %3) #0 {
  tail call void (ptr, ptr, ...) @proto_item_set_text(ptr noundef %0, ptr noundef nonnull @.str.659)
  %5 = load i32, ptr @ett_aim_nickinfo_caps, align 4
  %6 = tail call ptr @proto_item_add_subtree(ptr noundef %0, i32 noundef %5)
  %7 = tail call i32 @tvb_reported_length_remaining(ptr noundef %2, i32 noundef 0)
  %8 = icmp sgt i32 %7, 0
  br i1 %8, label %.lr.ph, label %._crit_edge

.lr.ph:                                           ; preds = %4, %.lr.ph
  %.07 = phi i32 [ %9, %.lr.ph ], [ 0, %4 ]
  %9 = tail call fastcc i32 @dissect_aim_capability(ptr noundef %6, ptr noundef %2, i32 noundef %.07)
  %10 = tail call i32 @tvb_reported_length_remaining(ptr noundef %2, i32 noundef %9)
  %11 = icmp sgt i32 %10, 0
  br i1 %11, label %.lr.ph, label %._crit_edge, !llvm.loop !17

._crit_edge:                                      ; preds = %.lr.ph, %4
  %12 = tail call i32 @tvb_reported_length(ptr noundef %2)
  ret i32 %12
}